target datalayout = "e-m:e-p270:32:32-p271:32:32-p272:64:64-i64:64-i128:128-f80:128-n8:16:32:64-S128"
target triple = "x86_64-pc-linux-gnu"

%struct._generic_N_Vector = type { ptr, ptr, ptr }
%struct._N_VectorContent_SensWrapper = type { ptr, i32, i32 }

; Function Attrs: nounwind uwtable
define void @N_VScale_SensWrapper(double noundef %0, ptr noundef %1, ptr noundef %2) #0 {
  %4 = alloca double, align 8
  %5 = alloca ptr, align 8
  %6 = alloca ptr, align 8
  %7 = alloca i32, align 4
  store double %0, ptr %4, align 8, !tbaa !61
  store ptr %1, ptr %5, align 8, !tbaa !10
  store ptr %2, ptr %6, align 8, !tbaa !10
  call void @llvm.lifetime.start.p0(i64 4, ptr %7) #5
  store i32 0, ptr %7, align 4, !tbaa !3
  br label %8

8:                                                ; preds = %36, %3
  %9 = load i32, ptr %7, align 4, !tbaa !3
  %10 = load ptr, ptr %5, align 8, !tbaa !10
  %11 = getelementptr inbounds nuw %struct._generic_N_Vector, ptr %10, i32 0, i32 0
  %12 = load ptr, ptr %11, align 8, !tbaa !45
  %13 = getelementptr inbounds nuw %struct._N_VectorContent_SensWrapper, ptr %12, i32 0, i32 1
  %14 = load i32, ptr %13, align 8, !tbaa !40
  %15 = icmp slt i32 %9, %14
  br i1 %15, label %16, label %39

16:                                               ; preds = %8
  %17 = load double, ptr %4, align 8, !tbaa !61
  %18 = load ptr, ptr %5, align 8, !tbaa !10
  %19 = getelementptr inbounds nuw %struct._generic_N_Vector, ptr %18, i32 0, i32 0
  %20 = load ptr, ptr %19, align 8, !tbaa !45
  %21 = getelementptr inbounds nuw %struct._N_VectorContent_SensWrapper, ptr %20, i32 0, i32 0
  %22 = load ptr, ptr %21, align 8, !tbaa !44
  %23 = load i32, ptr %7, align 4, !tbaa !3
  %24 = sext i32 %23 to i64
  %25 = getelementptr inbounds ptr, ptr %22, i64 %24
  %26 = load ptr, ptr %25, align 8, !tbaa !10
  %27 = load ptr, ptr %6, align 8, !tbaa !10
  %28 = getelementptr inbounds nuw %struct._generic_N_Vector, ptr %27, i32 0, i32 0
  %29 = load ptr, ptr %28, align 8, !tbaa !45
  %30 = getelementptr inbounds nuw %struct._N_VectorContent_SensWrapper, ptr %29, i32 0, i32 0
  %31 = load ptr, ptr %30, align 8, !tbaa !44
  %32 = load i32, ptr %7, align 4, !tbaa !3
  %33 = sext i32 %32 to i64
  %34 = getelementptr inbounds ptr, ptr %31, i64 %33
  %35 = load ptr, ptr %34, align 8, !tbaa !10
  call void @N_VScale(double noundef %17, ptr noundef %26, ptr noundef %35)
  br label %36

36:                                               ; preds = %16
  %37 = load i32, ptr %7, align 4, !tbaa !3
  %38 = add nsw i32 %37, 1
  store i32 %38, ptr %7, align 4, !tbaa !3
  br label %8

39:                                               ; preds = %8
  call void @llvm.lifetime.end.p0(i64 4, ptr %7) #5
  ret void
}